Certificate:
    Data:
        Version: 3 (0x2)
        Serial Number:
            f7:94:3c:62:06:33:62:12:a3:7c:bb:11:43:31:ce:f6
    Signature Algorithm: sha256WithRSAEncryption
        Issuer: CN=openvpnserver
        Validity
            Not Before: Oct 13 19:37:18 2019 GMT
            Not After : Sep 27 19:37:18 2022 GMT
        Subject: CN=client
        Subject Public Key Info:
            Public Key Algorithm: rsaEncryption
                Public-Key: (2048 bit)
                Modulus:
                    00:d4:e2:28:2e:be:27:35:ce:3b:b4:4b:7d:86:c5:
                    3d:69:6b:9f:21:56:dc:0b:e1:73:e6:ec:fd:c9:13:
                    83:15:fb:2f:b4:61:f8:cf:81:a7:af:97:51:05:e1:
                    81:77:23:cb:22:71:30:8c:5f:5b:af:a3:b7:eb:09:
                    3d:90:b0:c6:36:d4:d6:43:77:f2:dd:10:f8:87:62:
                    dc:56:d5:0c:b4:f4:f4:5a:67:9f:1d:01:dc:a2:18:
                    fb:53:69:cc:5c:72:b9:25:b8:64:f8:04:bc:f3:61:
                    40:08:3f:09:af:b7:42:e4:e4:6e:8d:91:ea:90:07:
                    6b:c6:cf:e6:88:93:0b:8c:54:10:17:41:b2:69:48:
                    52:27:a1:92:b1:99:de:2f:b6:2f:dd:3e:7b:3e:b5:
                    5d:9e:2b:2b:79:c6:ba:3e:b6:2f:6c:ab:bb:31:05:
                    f4:27:1b:3e:61:f1:42:f5:8a:bc:17:3c:6c:7a:29:
                    5e:92:fb:06:6c:2b:37:4c:c9:a3:de:bd:d7:f0:02:
                    f4:f5:54:ae:0b:86:fa:f7:16:06:02:0c:ba:99:31:
                    7b:47:df:c8:5a:f9:14:b1:b6:b2:1a:bb:2d:5d:2e:
                    21:06:a0:5f:de:35:a1:2b:1b:37:84:74:09:0c:5d:
                    79:a3:92:94:96:a5:75:50:48:ca:e7:79:77:1e:4e:
                    b3:2f
                Exponent: 65537 (0x10001)
        X509v3 extensions:
            X509v3 Basic Constraints: 
                CA:FALSE
            X509v3 Subject Key Identifier: 
                7D:CC:C3:FE:76:89:15:5A:60:EF:AD:B4:94:69:62:8E:12:F4:60:FF
            X509v3 Authority Key Identifier: 
                keyid:82:97:FA:BD:1E:8C:82:F3:A3:A8:22:10:06:9D:79:7C:40:17:FF:01
                DirName:/CN=openvpnserver
                serial:D1:AA:0B:2E:C7:DA:8C:2C

            X509v3 Extended Key Usage: 
                TLS Web Client Authentication
            X509v3 Key Usage: 
                Digital Signature
    Signature Algorithm: sha256WithRSAEncryption
         5f:f4:fb:55:e6:99:fe:1a:8d:38:18:b4:27:0f:9c:cf:93:80:
         22:a3:ac:5f:b6:ff:04:99:00:32:bc:10:54:a7:5a:18:2d:c2:
         86:87:ad:76:c7:dc:12:e7:c8:fa:ef:e8:d4:33:ab:a7:df:90:
         99:bd:2e:d3:a7:33:24:68:61:02:98:f7:d9:7b:b2:82:eb:37:
         a7:3f:2d:d0:00:62:91:91:91:c2:f9:b1:fb:d8:12:2b:f1:e9:
         33:51:55:0f:9e:b5:9d:d0:d4:d5:02:43:27:10:bf:df:d0:01:
         32:7a:e9:77:24:7a:64:f5:7f:4f:d0:21:8e:9c:a0:c7:28:a8:
         f0:75:b8:37:ff:2a:be:9a:d5:67:8b:c6:6f:e4:97:42:93:12:
         62:d9:67:0c:7d:23:ff:f7:cd:e1:84:c3:1e:f3:0c:f9:09:da:
         71:d6:bf:38:a5:8d:19:ae:04:87:11:d6:12:da:e6:9d:e8:44:
         36:e4:02:f9:56:7e:18:1c:e7:1b:cc:75:b9:de:74:4d:9c:a6:
         b2:b8:93:22:82:26:38:71:6c:da:a6:b0:66:d7:61:4d:4c:88:
         18:a0:d4:e6:ea:68:eb:af:35:9f:08:c9:4c:7b:f8:69:75:39:
         fe:63:d7:1a:e1:30:e3:ba:bc:98:0f:04:8f:58:da:bf:3a:e3:
         47:3c:0a:c7
-----BEGIN CERTIFICATE-----
MIIDTjCCAjagAwIBAgIRAPeUPGIGM2ISo3y7EUMxzvYwDQYJKoZIhvcNAQELBQAw
GDEWMBQGA1UEAwwNb3BlbnZwbnNlcnZlcjAeFw0xOTEwMTMxOTM3MThaFw0yMjA5
MjcxOTM3MThaMBExDzANBgNVBAMMBmNsaWVudDCCASIwDQYJKoZIhvcNAQEBBQAD
ggEPADCCAQoCggEBANTiKC6+JzXOO7RLfYbFPWlrnyFW3Avhc+bs/ckTgxX7L7Rh
+M+Bp6+XUQXhgXcjyyJxMIxfW6+jt+sJPZCwxjbU1kN38t0Q+Idi3FbVDLT09Fpn
nx0B3KIY+1NpzFxyuSW4ZPgEvPNhQAg/Ca+3QuTkbo2R6pAHa8bP5oiTC4xUEBdB
smlIUiehkrGZ3i+2L90+ez61XZ4rK3nGuj62L2yruzEF9CcbPmHxQvWKvBc8bHop
XpL7BmwrN0zJo9691/AC9PVUrguG+vcWBgIMupkxe0ffyFr5FLG2shq7LV0uIQag
X941oSsbN4R0CQxdeaOSlJaldVBIyud5dx5Osy8CAwEAAaOBmTCBljAJBgNVHRME
AjAAMB0GA1UdDgQWBBR9zMP+dokVWmDvrbSUaWKOEvRg/zBIBgNVHSMEQTA/gBSC
l/q9HoyC86OoIhAGnXl8QBf/AaEcpBowGDEWMBQGA1UEAwwNb3BlbnZwbnNlcnZl
coIJANGqCy7H2owsMBMGA1UdJQQMMAoGCCsGAQUFBwMCMAsGA1UdDwQEAwIHgDAN
BgkqhkiG9w0BAQsFAAOCAQEAX/T7VeaZ/hqNOBi0Jw+cz5OAIqOsX7b/BJkAMrwQ
VKdaGC3ChoetdsfcEufI+u/o1DOrp9+Qmb0u06czJGhhApj32Xuygus3pz8t0ABi
kZGRwvmx+9gSK/HpM1FVD561ndDU1QJDJxC/39ABMnrpdyR6ZPV/T9Ahjpygxyio
8HW4N/8qvprVZ4vGb+SXQpMSYtlnDH0j//fN4YTDHvMM+Qnacda/OKWNGa4EhxHW
EtrmnehENuQC+VZ+GBznG8x1ud50TZymsriTIoImOHFs2qawZtdhTUyIGKDU5upo
6681nwjJTHv4aXU5/mPXGuEw47q8mA8Ej1javzrjRzwKxw==
-----END CERTIFICATE-----
